target datalayout = "e-m:e-p270:32:32-p271:32:32-p272:64:64-i64:64-i128:128-f80:128-n8:16:32:64-S128"
target triple = "x86_64-pc-linux-gnu"

%struct.Ivy_FraigParams_t_ = type { i32, double, i32, i32, double, double, i32, i32, i32, i32, i32 }
%struct.Ivy_Man_t_ = type { ptr, ptr, ptr, ptr, ptr, %struct.Ivy_Obj_t_, [8 x i32], i32, i32, ptr, i32, i32, i32, i32, ptr, i32, ptr, ptr, ptr, i32, ptr, ptr, ptr, i64, i64 }
%struct.Ivy_Obj_t_ = type { i32, i32, i32, i32, ptr, ptr, ptr, ptr, ptr, ptr, ptr, ptr }
%struct.Ivy_FraigMan_t_ = type { ptr, i64, i64, ptr, ptr, i32, ptr, ptr, i32, ptr, ptr, %struct.Ivy_FraigList_t_, %struct.Ivy_FraigList_t_, i32, ptr, i32, ptr, ptr, i32, i32, i32, i32, i32, i32, i32, i32, i32, i32, i32, i32, i32, i64, i64, i64, i64, i64, i64, i64, i64, i64, i64 }
%struct.Ivy_FraigList_t_ = type { ptr, ptr, i32 }
%struct.timespec = type { i64, i64 }

; Function Attrs: inlinehint nounwind uwtable
define internal ptr @Ivy_ObjEquivListNext(ptr noundef %0) #4 {
  %2 = alloca ptr, align 8
  store ptr %0, ptr %2, align 8, !tbaa !72
  %3 = load ptr, ptr %2, align 8, !tbaa !72
  %4 = getelementptr inbounds nuw %struct.Ivy_Obj_t_, ptr %3, i32 0, i32 9
  %5 = load ptr, ptr %4, align 8, !tbaa !125
  ret ptr %5
}

; Function Attrs: inlinehint nounwind uwtable
define internal i64 @Abc_Clock() #4 {
  %1 = alloca i64, align 8
  %2 = alloca %struct.timespec, align 8
  %3 = alloca i32, align 4
  %4 = alloca i64, align 8
  call void @llvm.lifetime.start.p0(i64 16, ptr %2) #12
  %5 = call i32 @clock_gettime(i32 noundef 1, ptr noundef %2) #12
  %6 = icmp slt i32 %5, 0
  br i1 %6, label %7, label %8

7:                                                ; preds = %0
  store i64 -1, ptr %1, align 8
  store i32 1, ptr %3, align 4
  br label %19

8:                                                ; preds = %0
  call void @llvm.lifetime.start.p0(i64 8, ptr %4) #12
  %9 = getelementptr inbounds nuw %struct.timespec, ptr %2, i32 0, i32 0
  %10 = load i64, ptr %9, align 8, !tbaa !260
  %11 = mul nsw i64 %10, 1000000
  store i64 %11, ptr %4, align 8, !tbaa !25
  %12 = getelementptr inbounds nuw %struct.timespec, ptr %2, i32 0, i32 1
  %13 = load i64, ptr %12, align 8, !tbaa !262
  %14 = mul nsw i64 %13, 1000000
  %15 = sdiv i64 %14, 1000000000
  %16 = load i64, ptr %4, align 8, !tbaa !25
  %17 = add nsw i64 %16, %15
  store i64 %17, ptr %4, align 8, !tbaa !25
  %18 = load i64, ptr %4, align 8, !tbaa !25
  store i64 %18, ptr %1, align 8
  store i32 1, ptr %3, align 4
  call void @llvm.lifetime.end.p0(i64 8, ptr %4) #12
  br label %19

19:                                               ; preds = %8, %7
  call void @llvm.lifetime.end.p0(i64 16, ptr %2) #12
  %20 = load i64, ptr %1, align 8
  ret i64 %20
}

; Function Attrs: nounwind uwtable
define i32 @Ivy_FraigRefineClasses(ptr noundef %0) #0 {
  %2 = alloca i32, align 4
  %3 = alloca ptr, align 8
  %4 = alloca ptr, align 8
  %5 = alloca ptr, align 8
  %6 = alloca i32, align 4
  %7 = alloca i32, align 4
  %8 = alloca i64, align 8
  %9 = alloca i32, align 4
  store ptr %0, ptr %3, align 8, !tbaa !60
  call void @llvm.lifetime.start.p0(i64 8, ptr %4) #12
  call void @llvm.lifetime.start.p0(i64 8, ptr %5) #12
  call void @llvm.lifetime.start.p0(i64 4, ptr %6) #12
  call void @llvm.lifetime.start.p0(i64 4, ptr %7) #12
  store i32 0, ptr %7, align 4, !tbaa !44
  call void @llvm.lifetime.start.p0(i64 8, ptr %8) #12
  %10 = load ptr, ptr %3, align 8, !tbaa !60
  %11 = getelementptr inbounds nuw %struct.Ivy_FraigMan_t_, ptr %10, i32 0, i32 0
  %12 = load ptr, ptr %11, align 8, !tbaa !99
  %13 = getelementptr inbounds nuw %struct.Ivy_FraigParams_t_, ptr %12, i32 0, i32 6
  %14 = load i32, ptr %13, align 8, !tbaa !33
  %15 = icmp ne i32 %14, 0
  br i1 %15, label %16, label %19

16:                                               ; preds = %1
  %17 = load ptr, ptr %3, align 8, !tbaa !60
  %18 = call i32 @Ivy_FraigCheckOutputSims(ptr noundef %17)
  br label %19

19:                                               ; preds = %16, %1
  %20 = load ptr, ptr %3, align 8, !tbaa !60
  %21 = getelementptr inbounds nuw %struct.Ivy_FraigMan_t_, ptr %20, i32 0, i32 4
  %22 = load ptr, ptr %21, align 8, !tbaa !73
  %23 = getelementptr inbounds nuw %struct.Ivy_Man_t_, ptr %22, i32 0, i32 16
  %24 = load ptr, ptr %23, align 8, !tbaa !53
  %25 = icmp ne ptr %24, null
  br i1 %25, label %26, label %27

26:                                               ; preds = %19
  store i32 0, ptr %2, align 4
  store i32 1, ptr %9, align 4
  br label %80

27:                                               ; preds = %19
  %28 = call i64 @Abc_Clock()
  store i64 %28, ptr %8, align 8, !tbaa !25
  %29 = load ptr, ptr %3, align 8, !tbaa !60
  %30 = getelementptr inbounds nuw %struct.Ivy_FraigMan_t_, ptr %29, i32 0, i32 11
  %31 = getelementptr inbounds nuw %struct.Ivy_FraigList_t_, ptr %30, i32 0, i32 0
  %32 = load ptr, ptr %31, align 8, !tbaa !116
  store ptr %32, ptr %4, align 8, !tbaa !72
  %33 = load ptr, ptr %4, align 8, !tbaa !72
  %34 = icmp ne ptr %33, null
  br i1 %34, label %35, label %38

35:                                               ; preds = %27
  %36 = load ptr, ptr %4, align 8, !tbaa !72
  %37 = call ptr @Ivy_ObjEquivListNext(ptr noundef %36)
  br label %39

38:                                               ; preds = %27
  br label %39

39:                                               ; preds = %38, %35
  %40 = phi ptr [ %37, %35 ], [ null, %38 ]
  store ptr %40, ptr %5, align 8, !tbaa !72
  br label %41

41:                                               ; preds = %69, %39
  %42 = load ptr, ptr %4, align 8, !tbaa !72
  %43 = icmp ne ptr %42, null
  br i1 %43, label %44, label %71

44:                                               ; preds = %41
  %45 = load ptr, ptr %4, align 8, !tbaa !72
  %46 = getelementptr inbounds nuw %struct.Ivy_Obj_t_, ptr %45, i32 0, i32 2
  %47 = load i32, ptr %46, align 8
  %48 = lshr i32 %47, 4
  %49 = and i32 %48, 1
  %50 = icmp ne i32 %49, 0
  br i1 %50, label %51, label %52

51:                                               ; preds = %44
  br label %61

52:                                               ; preds = %44
  %53 = load ptr, ptr %3, align 8, !tbaa !60
  %54 = load ptr, ptr %4, align 8, !tbaa !72
  %55 = call i32 @Ivy_FraigRefineClass_rec(ptr noundef %53, ptr noundef %54)
  store i32 %55, ptr %6, align 4, !tbaa !44
  %56 = load i32, ptr %6, align 4, !tbaa !44
  %57 = icmp sgt i32 %56, 0
  %58 = zext i1 %57 to i32
  %59 = load i32, ptr %7, align 4, !tbaa !44
  %60 = add nsw i32 %59, %58
  store i32 %60, ptr %7, align 4, !tbaa !44
  br label %61

61:                                               ; preds = %52, %51
  %62 = load ptr, ptr %5, align 8, !tbaa !72
  store ptr %62, ptr %4, align 8, !tbaa !72
  %63 = load ptr, ptr %4, align 8, !tbaa !72
  %64 = icmp ne ptr %63, null
  br i1 %64, label %65, label %68

65:                                               ; preds = %61
  %66 = load ptr, ptr %4, align 8, !tbaa !72
  %67 = call ptr @Ivy_ObjEquivListNext(ptr noundef %66)
  br label %69

68:                                               ; preds = %61
  br label %69

69:                                               ; preds = %68, %65
  %70 = phi ptr [ %67, %65 ], [ null, %68 ]
  store ptr %70, ptr %5, align 8, !tbaa !72
  br label %41, !llvm.loop !189

71:                                               ; preds = %41
  %72 = call i64 @Abc_Clock()
  %73 = load i64, ptr %8, align 8, !tbaa !25
  %74 = sub nsw i64 %72, %73
  %75 = load ptr, ptr %3, align 8, !tbaa !60
  %76 = getelementptr inbounds nuw %struct.Ivy_FraigMan_t_, ptr %75, i32 0, i32 37
  %77 = load i64, ptr %76, align 8, !tbaa !190
  %78 = add nsw i64 %77, %74
  store i64 %78, ptr %76, align 8, !tbaa !190
  %79 = load i32, ptr %7, align 4, !tbaa !44
  store i32 %79, ptr %2, align 4
  store i32 1, ptr %9, align 4
  br label %80

80:                                               ; preds = %71, %26
  call void @llvm.lifetime.end.p0(i64 8, ptr %8) #12
  call void @llvm.lifetime.end.p0(i64 4, ptr %7) #12
  call void @llvm.lifetime.end.p0(i64 4, ptr %6) #12
  call void @llvm.lifetime.end.p0(i64 8, ptr %5) #12
  call void @llvm.lifetime.end.p0(i64 8, ptr %4) #12
  %81 = load i32, ptr %2, align 4
  ret i32 %81
}