; Function Attrs: nounwind uwtable
define i32 @Ivy_FraigRefineClasses(ptr noundef captures(none) %0) local_unnamed_addr #2 {
  %2 = alloca %struct.timespec, align 8
  %3 = alloca %struct.timespec, align 8
  %4 = load ptr, ptr %0, align 8, !tbaa !85
  %5 = getelementptr inbounds nuw i8, ptr %4, i64 40
  %6 = load i32, ptr %5, align 8, !tbaa !24
  %.not = icmp eq i32 %6, 0
  br i1 %.not, label %9, label %7

7:                                                ; preds = %1
  %8 = tail call i32 @Ivy_FraigCheckOutputSims(ptr noundef nonnull %0)
  br label %9

9:                                                ; preds = %7, %1
  %10 = getelementptr inbounds nuw i8, ptr %0, i64 32
  %11 = load ptr, ptr %10, align 8, !tbaa !69
  %12 = getelementptr inbounds nuw i8, ptr %11, i64 200
  %13 = load ptr, ptr %12, align 8, !tbaa !39
  %.not22 = icmp eq ptr %13, null
  br i1 %.not22, label %14, label %46

14:                                               ; preds = %9
  call void @llvm.lifetime.start.p0(i64 16, ptr nonnull %3) #26
  %15 = call i32 @clock_gettime(i32 noundef 1, ptr noundef nonnull %3) #26
  %16 = icmp slt i32 %15, 0
  br i1 %16, label %Abc_Clock.exit, label %17

17:                                               ; preds = %14
  %18 = load i64, ptr %3, align 8, !tbaa !35
  %.neg29 = mul i64 %18, -1000000
  %19 = getelementptr inbounds nuw i8, ptr %3, i64 8
  %20 = load i64, ptr %19, align 8, !tbaa !37
  %.neg = sdiv i64 %20, -1000
  %.neg30 = add i64 %.neg, %.neg29
  br label %Abc_Clock.exit

Abc_Clock.exit:                                   ; preds = %14, %17
  %.0.i.neg = phi i64 [ %.neg30, %17 ], [ 1, %14 ]
  call void @llvm.lifetime.end.p0(i64 16, ptr nonnull %3) #26
  %21 = getelementptr inbounds nuw i8, ptr %0, i64 88
  %22 = load ptr, ptr %21, align 8, !tbaa !120
  %.not23 = icmp eq ptr %22, null
  br i1 %.not23, label %._crit_edge, label %.lr.ph

.lr.ph:                                           ; preds = %Abc_Clock.exit, %32
  %.020.val.sink = phi ptr [ %.020.val, %32 ], [ %22, %Abc_Clock.exit ]
  %.01834 = phi i32 [ %.1, %32 ], [ 0, %Abc_Clock.exit ]
  %23 = getelementptr i8, ptr %.020.val.sink, i64 56
  %.020.val = load ptr, ptr %23, align 8, !tbaa !182
  %24 = getelementptr inbounds nuw i8, ptr %.020.val.sink, i64 8
  %25 = load i32, ptr %24, align 8
  %26 = and i32 %25, 16
  %.not25 = icmp eq i32 %26, 0
  br i1 %.not25, label %27, label %32

27:                                               ; preds = %.lr.ph
  %28 = call i32 @Ivy_FraigRefineClass_rec(ptr noundef nonnull %0, ptr noundef nonnull %.020.val.sink)
  %29 = icmp sgt i32 %28, 0
  %30 = zext i1 %29 to i32
  %31 = add nsw i32 %.01834, %30
  br label %32

32:                                               ; preds = %.lr.ph, %27
  %.1 = phi i32 [ %.01834, %.lr.ph ], [ %31, %27 ]
  %.not26 = icmp eq ptr %.020.val, null
  br i1 %.not26, label %._crit_edge, label %.lr.ph, !llvm.loop !197

._crit_edge:                                      ; preds = %32, %Abc_Clock.exit
  %.018.lcssa = phi i32 [ 0, %Abc_Clock.exit ], [ %.1, %32 ]
  call void @llvm.lifetime.start.p0(i64 16, ptr nonnull %2) #26
  %33 = call i32 @clock_gettime(i32 noundef 1, ptr noundef nonnull %2) #26
  %34 = icmp slt i32 %33, 0
  br i1 %34, label %Abc_Clock.exit28, label %35

35:                                               ; preds = %._crit_edge
  %36 = load i64, ptr %2, align 8, !tbaa !35
  %37 = mul nsw i64 %36, 1000000
  %38 = getelementptr inbounds nuw i8, ptr %2, i64 8
  %39 = load i64, ptr %38, align 8, !tbaa !37
  %40 = sdiv i64 %39, 1000
  %41 = add nsw i64 %40, %37
  br label %Abc_Clock.exit28

Abc_Clock.exit28:                                 ; preds = %._crit_edge, %35
  %.0.i27 = phi i64 [ %41, %35 ], [ -1, %._crit_edge ]
  call void @llvm.lifetime.end.p0(i64 16, ptr nonnull %2) #26
  %42 = add i64 %.0.i27, %.0.i.neg
  %43 = getelementptr inbounds nuw i8, ptr %0, i64 280
  %44 = load i64, ptr %43, align 8, !tbaa !153
  %45 = add nsw i64 %42, %44
  store i64 %45, ptr %43, align 8, !tbaa !153
  br label %46

46:                                               ; preds = %9, %Abc_Clock.exit28
  %.0 = phi i32 [ %.018.lcssa, %Abc_Clock.exit28 ], [ 0, %9 ]
  ret i32 %.0
}